; Function Attrs: mustprogress nofree norecurse nosync nounwind willreturn memory(argmem: write) uwtable
define hidden void @av1_set_default_ref_deltas(ptr nocapture noundef writeonly %0) local_unnamed_addr #4 {
  store i8 1, ptr %0, align 1
  %2 = getelementptr inbounds i8, ptr %0, i64 1
  store i8 0, ptr %2, align 1
  %3 = getelementptr inbounds i8, ptr %0, i64 2
  store i8 0, ptr %3, align 1
  %4 = getelementptr inbounds i8, ptr %0, i64 3
  store i8 0, ptr %4, align 1
  %5 = getelementptr inbounds i8, ptr %0, i64 5
  store i8 0, ptr %5, align 1
  %6 = getelementptr inbounds i8, ptr %0, i64 4
  store i8 -1, ptr %6, align 1
  %7 = getelementptr inbounds i8, ptr %0, i64 6
  store i8 -1, ptr %7, align 1
  %8 = getelementptr inbounds i8, ptr %0, i64 7
  store i8 -1, ptr %8, align 1
  ret void
}